target datalayout = "e-m:e-p270:32:32-p271:32:32-p272:64:64-i64:64-i128:128-f80:128-n8:16:32:64-S128"
target triple = "x86_64-pc-linux-gnu"

%struct.GCRef = type { i64 }
%struct.jit_State = type { %struct.GCtrace, ptr, ptr, ptr, ptr, ptr, ptr, i32, i32, i32, i8, i8, %struct.IRType1, i8, %struct.FoldState, ptr, i32, i32, i32, i32, i32, i32, i32, [1 x i32], [5 x %union.TValue], [3 x %union.TValue], ptr, i32, i32, i32, i32, ptr, ptr, i32, i32, i8, ptr, i32, i32, i16, [101 x i16], [258 x i32], [15 x i32], [16 x ptr], [64 x %struct.HotPenalty], i32, [16 x %struct.BPropEntry], i32, %struct.ScEvEntry, ptr, i32, i32, i32, ptr, i32, i32, ptr, ptr, ptr, i64, i64, %union.TValue, ptr, i32, i32 }
%struct.GCtrace = type { %struct.GCRef, i8, i8, i16, i32, i32, %struct.GCRef, ptr, i32, i32, ptr, ptr, %struct.GCRef, %struct.MRef, i32, i32, ptr, i32, i16, i16, i16, i16, i16, i16, i16, i8, i8, i8, i8 }
%struct.MRef = type { i64 }
%struct.IRType1 = type { i8 }
%struct.FoldState = type { %union.IRIns, [2 x %union.IRIns], [2 x %union.IRIns] }
%union.IRIns = type { %struct.GCRef }
%struct.HotPenalty = type { %struct.MRef, i16, i16 }
%struct.BPropEntry = type { i16, i16, i32 }
%struct.ScEvEntry = type { %struct.MRef, i16, i16, i16, i16, %struct.IRType1, i8 }
%union.TValue = type { i64 }
%struct.anon.2 = type { i16, i16, i16, i16 }
%struct.RecordFFData = type { ptr, i64, i32 }
%struct.RecordIndex = type { %union.TValue, %union.TValue, %union.TValue, %union.TValue, ptr, ptr, i32, i32, i32, i32, i32, i32 }

@.str.1 = private unnamed_addr constant [24 x i8] c"store to dead GC object\00", align 1

; Function Attrs: alwaysinline nounwind uwtable
define internal void @checklivetv(ptr noundef %0, ptr noundef %1, ptr noundef %2) #1 {
  %4 = alloca ptr, align 8
  %5 = alloca ptr, align 8
  %6 = alloca ptr, align 8
  store ptr %0, ptr %4, align 8, !tbaa !87
  store ptr %1, ptr %5, align 8, !tbaa !11
  store ptr %2, ptr %6, align 8, !tbaa !92
  ret void
}

; Function Attrs: alwaysinline nounwind uwtable
define internal void @setgcVraw(ptr noundef %0, ptr noundef %1, i32 noundef %2) #1 {
  %4 = alloca ptr, align 8
  %5 = alloca ptr, align 8
  %6 = alloca i32, align 4
  store ptr %0, ptr %4, align 8, !tbaa !11
  store ptr %1, ptr %5, align 8, !tbaa !93
  store i32 %2, ptr %6, align 4, !tbaa !9
  %7 = load ptr, ptr %5, align 8, !tbaa !93
  %8 = ptrtoint ptr %7 to i64
  %9 = load i32, ptr %6, align 4, !tbaa !9
  %10 = zext i32 %9 to i64
  %11 = shl i64 %10, 47
  %12 = or i64 %8, %11
  %13 = load ptr, ptr %4, align 8, !tbaa !11
  %14 = getelementptr inbounds nuw %struct.GCRef, ptr %13, i32 0, i32 0
  store i64 %12, ptr %14, align 8, !tbaa !13
  ret void
}

; Function Attrs: alwaysinline nounwind uwtable
define internal void @setgcV(ptr noundef %0, ptr noundef %1, ptr noundef %2, i32 noundef %3) #1 {
  %5 = alloca ptr, align 8
  %6 = alloca ptr, align 8
  %7 = alloca ptr, align 8
  %8 = alloca i32, align 4
  store ptr %0, ptr %5, align 8, !tbaa !87
  store ptr %1, ptr %6, align 8, !tbaa !11
  store ptr %2, ptr %7, align 8, !tbaa !93
  store i32 %3, ptr %8, align 4, !tbaa !9
  %9 = load ptr, ptr %6, align 8, !tbaa !11
  %10 = load ptr, ptr %7, align 8, !tbaa !93
  %11 = load i32, ptr %8, align 4, !tbaa !9
  call void @setgcVraw(ptr noundef %9, ptr noundef %10, i32 noundef %11)
  %12 = load ptr, ptr %5, align 8, !tbaa !87
  %13 = load ptr, ptr %6, align 8, !tbaa !11
  call void @checklivetv(ptr noundef %12, ptr noundef %13, ptr noundef @.str.1)
  ret void
}

; Function Attrs: alwaysinline nounwind uwtable
define internal void @setintV(ptr noundef %0, i32 noundef %1) #1 {
  %3 = alloca ptr, align 8
  %4 = alloca i32, align 4
  store ptr %0, ptr %3, align 8, !tbaa !11
  store i32 %1, ptr %4, align 4, !tbaa !9
  %5 = load i32, ptr %4, align 4, !tbaa !9
  %6 = sitofp i32 %5 to double
  %7 = load ptr, ptr %3, align 8, !tbaa !11
  store double %6, ptr %7, align 8, !tbaa !13
  ret void
}

; Function Attrs: alwaysinline nounwind uwtable
define internal void @settabV(ptr noundef %0, ptr noundef %1, ptr noundef %2) #1 {
  %4 = alloca ptr, align 8
  %5 = alloca ptr, align 8
  %6 = alloca ptr, align 8
  store ptr %0, ptr %4, align 8, !tbaa !87
  store ptr %1, ptr %5, align 8, !tbaa !11
  store ptr %2, ptr %6, align 8, !tbaa !75
  %7 = load ptr, ptr %4, align 8, !tbaa !87
  %8 = load ptr, ptr %5, align 8, !tbaa !11
  %9 = load ptr, ptr %6, align 8, !tbaa !75
  call void @setgcV(ptr noundef %7, ptr noundef %8, ptr noundef %9, i32 noundef -12)
  ret void
}

; Function Attrs: alwaysinline nounwind uwtable
define internal void @lj_ir_set_(ptr noundef %0, i16 noundef zeroext %1, i16 noundef zeroext %2, i16 noundef zeroext %3) #1 {
  %5 = alloca ptr, align 8
  %6 = alloca i16, align 2
  %7 = alloca i16, align 2
  %8 = alloca i16, align 2
  store ptr %0, ptr %5, align 8, !tbaa !4
  store i16 %1, ptr %6, align 2, !tbaa !14
  store i16 %2, ptr %7, align 2, !tbaa !14
  store i16 %3, ptr %8, align 2, !tbaa !14
  %9 = load i16, ptr %6, align 2, !tbaa !14
  %10 = load ptr, ptr %5, align 8, !tbaa !4
  %11 = getelementptr inbounds nuw %struct.jit_State, ptr %10, i32 0, i32 14
  %12 = getelementptr inbounds nuw %struct.FoldState, ptr %11, i32 0, i32 0
  %13 = getelementptr inbounds nuw %struct.anon.2, ptr %12, i32 0, i32 2
  store i16 %9, ptr %13, align 4, !tbaa !13
  %14 = load i16, ptr %7, align 2, !tbaa !14
  %15 = load ptr, ptr %5, align 8, !tbaa !4
  %16 = getelementptr inbounds nuw %struct.jit_State, ptr %15, i32 0, i32 14
  %17 = getelementptr inbounds nuw %struct.FoldState, ptr %16, i32 0, i32 0
  %18 = getelementptr inbounds nuw %struct.anon.2, ptr %17, i32 0, i32 0
  store i16 %14, ptr %18, align 8, !tbaa !13
  %19 = load i16, ptr %8, align 2, !tbaa !14
  %20 = load ptr, ptr %5, align 8, !tbaa !4
  %21 = getelementptr inbounds nuw %struct.jit_State, ptr %20, i32 0, i32 14
  %22 = getelementptr inbounds nuw %struct.FoldState, ptr %21, i32 0, i32 0
  %23 = getelementptr inbounds nuw %struct.anon.2, ptr %22, i32 0, i32 1
  store i16 %19, ptr %23, align 2, !tbaa !13
  ret void
}

; Function Attrs: nounwind uwtable
define internal void @recff_table_insert(ptr noundef %0, ptr noundef %1) #0 {
  %3 = alloca ptr, align 8
  %4 = alloca ptr, align 8
  %5 = alloca %struct.RecordIndex, align 8
  %6 = alloca i32, align 4
  %7 = alloca ptr, align 8
  %8 = alloca i32, align 4
  store ptr %0, ptr %3, align 8, !tbaa !4
  store ptr %1, ptr %4, align 8, !tbaa !46
  call void @llvm.lifetime.start.p0(i64 72, ptr %5) #9
  %9 = load ptr, ptr %3, align 8, !tbaa !4
  %10 = getelementptr inbounds nuw %struct.jit_State, ptr %9, i32 0, i32 6
  %11 = load ptr, ptr %10, align 8, !tbaa !41
  %12 = getelementptr inbounds i32, ptr %11, i64 0
  %13 = load i32, ptr %12, align 4, !tbaa !9
  %14 = getelementptr inbounds nuw %struct.RecordIndex, ptr %5, i32 0, i32 6
  store i32 %13, ptr %14, align 8, !tbaa !50
  %15 = load ptr, ptr %3, align 8, !tbaa !4
  %16 = getelementptr inbounds nuw %struct.jit_State, ptr %15, i32 0, i32 6
  %17 = load ptr, ptr %16, align 8, !tbaa !41
  %18 = getelementptr inbounds i32, ptr %17, i64 1
  %19 = load i32, ptr %18, align 4, !tbaa !9
  %20 = getelementptr inbounds nuw %struct.RecordIndex, ptr %5, i32 0, i32 8
  store i32 %19, ptr %20, align 8, !tbaa !56
  %21 = load ptr, ptr %4, align 8, !tbaa !46
  %22 = getelementptr inbounds nuw %struct.RecordFFData, ptr %21, i32 0, i32 1
  store i64 0, ptr %22, align 8, !tbaa !36
  %23 = getelementptr inbounds nuw %struct.RecordIndex, ptr %5, i32 0, i32 6
  %24 = load i32, ptr %23, align 8, !tbaa !50
  %25 = and i32 %24, 520093696
  %26 = icmp eq i32 %25, 184549376
  br i1 %26, label %27, label %78

27:                                               ; preds = %2
  %28 = getelementptr inbounds nuw %struct.RecordIndex, ptr %5, i32 0, i32 8
  %29 = load i32, ptr %28, align 8, !tbaa !56
  %30 = icmp ne i32 %29, 0
  br i1 %30, label %31, label %78

31:                                               ; preds = %27
  %32 = load ptr, ptr %3, align 8, !tbaa !4
  %33 = getelementptr inbounds nuw %struct.jit_State, ptr %32, i32 0, i32 6
  %34 = load ptr, ptr %33, align 8, !tbaa !41
  %35 = getelementptr inbounds i32, ptr %34, i64 2
  %36 = load i32, ptr %35, align 4, !tbaa !9
  %37 = icmp ne i32 %36, 0
  br i1 %37, label %74, label %38

38:                                               ; preds = %31
  call void @llvm.lifetime.start.p0(i64 4, ptr %6) #9
  %39 = load ptr, ptr %3, align 8, !tbaa !4
  %40 = getelementptr inbounds nuw %struct.RecordIndex, ptr %5, i32 0, i32 6
  %41 = load i32, ptr %40, align 8, !tbaa !50
  %42 = trunc i32 %41 to i16
  call void @lj_ir_set_(ptr noundef %39, i16 noundef zeroext 18707, i16 noundef zeroext %42, i16 noundef zeroext 32767)
  %43 = load ptr, ptr %3, align 8, !tbaa !4
  %44 = call i32 @lj_opt_fold(ptr noundef %43)
  store i32 %44, ptr %6, align 4, !tbaa !9
  call void @llvm.lifetime.start.p0(i64 8, ptr %7) #9
  %45 = load ptr, ptr %4, align 8, !tbaa !46
  %46 = getelementptr inbounds nuw %struct.RecordFFData, ptr %45, i32 0, i32 0
  %47 = load ptr, ptr %46, align 8, !tbaa !40
  %48 = getelementptr inbounds %union.TValue, ptr %47, i64 0
  %49 = getelementptr inbounds nuw %struct.GCRef, ptr %48, i32 0, i32 0
  %50 = load i64, ptr %49, align 8, !tbaa !13
  %51 = and i64 %50, 140737488355327
  %52 = inttoptr i64 %51 to ptr
  store ptr %52, ptr %7, align 8, !tbaa !75
  %53 = load ptr, ptr %3, align 8, !tbaa !4
  %54 = load i32, ptr %6, align 4, !tbaa !9
  %55 = trunc i32 %54 to i16
  %56 = load ptr, ptr %3, align 8, !tbaa !4
  %57 = call i32 @lj_ir_kint(ptr noundef %56, i32 noundef 1)
  %58 = trunc i32 %57 to i16
  call void @lj_ir_set_(ptr noundef %53, i16 noundef zeroext 10515, i16 noundef zeroext %55, i16 noundef zeroext %58)
  %59 = load ptr, ptr %3, align 8, !tbaa !4
  %60 = call i32 @lj_opt_fold(ptr noundef %59)
  %61 = getelementptr inbounds nuw %struct.RecordIndex, ptr %5, i32 0, i32 7
  store i32 %60, ptr %61, align 4, !tbaa !53
  %62 = load ptr, ptr %3, align 8, !tbaa !4
  %63 = getelementptr inbounds nuw %struct.jit_State, ptr %62, i32 0, i32 2
  %64 = load ptr, ptr %63, align 8, !tbaa !37
  %65 = getelementptr inbounds nuw %struct.RecordIndex, ptr %5, i32 0, i32 0
  %66 = load ptr, ptr %7, align 8, !tbaa !75
  call void @settabV(ptr noundef %64, ptr noundef %65, ptr noundef %66)
  %67 = getelementptr inbounds nuw %struct.RecordIndex, ptr %5, i32 0, i32 1
  %68 = load ptr, ptr %7, align 8, !tbaa !75
  %69 = call i32 @lj_tab_len(ptr noundef %68)
  %70 = add i32 %69, 1
  call void @setintV(ptr noundef %67, i32 noundef %70)
  %71 = getelementptr inbounds nuw %struct.RecordIndex, ptr %5, i32 0, i32 11
  store i32 0, ptr %71, align 4, !tbaa !54
  %72 = load ptr, ptr %3, align 8, !tbaa !4
  %73 = call i32 @lj_record_idx(ptr noundef %72, ptr noundef %5)
  call void @llvm.lifetime.end.p0(i64 8, ptr %7) #9
  call void @llvm.lifetime.end.p0(i64 4, ptr %6) #9
  br label %77

74:                                               ; preds = %31
  %75 = load ptr, ptr %3, align 8, !tbaa !4
  %76 = load ptr, ptr %4, align 8, !tbaa !46
  call void @recff_nyi(ptr noundef %75, ptr noundef %76)
  store i32 1, ptr %8, align 4
  br label %79

77:                                               ; preds = %38
  br label %78

78:                                               ; preds = %77, %27, %2
  store i32 0, ptr %8, align 4
  br label %79

79:                                               ; preds = %78, %74
  call void @llvm.lifetime.end.p0(i64 72, ptr %5) #9
  %80 = load i32, ptr %8, align 4
  switch i32 %80, label %82 [
    i32 0, label %81
    i32 1, label %81
  ]

81:                                               ; preds = %79, %79
  ret void

82:                                               ; preds = %79
  unreachable
}