; Function Attrs: nounwind uwtable
define internal void @recff_table_insert(ptr noundef %0, ptr noundef captures(none) initializes((8, 16)) %1) #0 {
  %3 = alloca %struct.RecordIndex, align 8
  call void @llvm.lifetime.start.p0(i64 72, ptr nonnull %3) #9
  %4 = getelementptr inbounds nuw i8, ptr %0, i64 160
  %5 = load ptr, ptr %4, align 8, !tbaa !37
  %6 = load i32, ptr %5, align 4, !tbaa !39
  %7 = getelementptr inbounds nuw i8, ptr %3, i64 48
  store i32 %6, ptr %7, align 8, !tbaa !47
  %8 = getelementptr inbounds nuw i8, ptr %5, i64 4
  %9 = load i32, ptr %8, align 4, !tbaa !39
  %10 = getelementptr inbounds nuw i8, ptr %3, i64 56
  store i32 %9, ptr %10, align 8, !tbaa !53
  %11 = getelementptr inbounds nuw i8, ptr %1, i64 8
  store i64 0, ptr %11, align 8, !tbaa !32
  %12 = and i32 %6, 520093696
  %13 = icmp eq i32 %12, 184549376
  %14 = icmp ne i32 %9, 0
  %or.cond = select i1 %13, i1 %14, i1 false
  br i1 %or.cond, label %15, label %41

15:                                               ; preds = %2
  %16 = getelementptr inbounds nuw i8, ptr %5, i64 8
  %17 = load i32, ptr %16, align 4, !tbaa !39
  %.not = icmp eq i32 %17, 0
  br i1 %.not, label %18, label %40

18:                                               ; preds = %15
  %19 = trunc i32 %6 to i16
  %20 = getelementptr inbounds nuw i8, ptr %0, i64 184
  %21 = getelementptr inbounds nuw i8, ptr %0, i64 188
  store i16 18707, ptr %21, align 4, !tbaa !4
  store i16 %19, ptr %20, align 8, !tbaa !4
  %22 = getelementptr inbounds nuw i8, ptr %0, i64 186
  store i16 32767, ptr %22, align 2, !tbaa !4
  %23 = tail call i32 @lj_opt_fold(ptr noundef nonnull %0) #9
  %24 = load ptr, ptr %1, align 8, !tbaa !36
  %25 = load i64, ptr %24, align 8, !tbaa !4
  %26 = and i64 %25, 140737488355327
  %27 = inttoptr i64 %26 to ptr
  %28 = trunc i32 %23 to i16
  %29 = tail call i32 @lj_ir_kint(ptr noundef nonnull %0, i32 noundef 1) #9
  %30 = trunc i32 %29 to i16
  store i16 10515, ptr %21, align 4, !tbaa !4
  store i16 %28, ptr %20, align 8, !tbaa !4
  store i16 %30, ptr %22, align 2, !tbaa !4
  %31 = tail call i32 @lj_opt_fold(ptr noundef nonnull %0) #9
  %32 = getelementptr inbounds nuw i8, ptr %3, i64 52
  store i32 %31, ptr %32, align 4, !tbaa !50
  %33 = or disjoint i64 %26, -1688849860263936
  store i64 %33, ptr %3, align 8, !tbaa !4
  %34 = getelementptr inbounds nuw i8, ptr %3, i64 8
  %35 = tail call i32 @lj_tab_len(ptr noundef %27) #9
  %36 = add i32 %35, 1
  %37 = sitofp i32 %36 to double
  store double %37, ptr %34, align 8, !tbaa !4
  %38 = getelementptr inbounds nuw i8, ptr %3, i64 68
  store i32 0, ptr %38, align 4, !tbaa !51
  %39 = call i32 @lj_record_idx(ptr noundef nonnull %0, ptr noundef nonnull %3) #9
  br label %41

40:                                               ; preds = %15
  tail call void @recff_nyi(ptr noundef nonnull %0, ptr noundef nonnull %1)
  br label %41

41:                                               ; preds = %2, %18, %40
  call void @llvm.lifetime.end.p0(i64 72, ptr nonnull %3) #9
  ret void
}